target datalayout = "e-m:e-p270:32:32-p271:32:32-p272:64:64-i64:64-i128:128-f80:128-n8:16:32:64-S128"
target triple = "x86_64-pc-linux-gnu"

%"class.std::__cxx11::basic_string" = type { %"struct.std::__cxx11::basic_string<char>::_Alloc_hider", i64, %union.anon }
%"struct.std::__cxx11::basic_string<char>::_Alloc_hider" = type { ptr }
%union.anon = type { i64, [8 x i8] }
%class.App = type { i8, i8, i8, i64, i64, float, float, %"class.std::__cxx11::basic_string", i32, [4 x i8], %"class.cv::VideoCapture", %"class.cv::Mat", %"class.cv::Mat", %"class.opencl::PlatformInfo", %"class.opencl::DeviceInfo", %"class.std::vector.12", ptr, ptr, ptr, ptr, ptr, ptr, ptr, ptr }
%"class.cv::VideoCapture" = type <{ ptr, %"struct.cv::Ptr", %"struct.cv::Ptr.0", i8, [7 x i8] }>
%"struct.cv::Ptr" = type { %"class.std::shared_ptr" }
%"class.std::shared_ptr" = type { %"class.std::__shared_ptr" }
%"class.std::__shared_ptr" = type { ptr, %"class.std::__shared_count" }
%"class.std::__shared_count" = type { ptr }
%"struct.cv::Ptr.0" = type { %"class.std::shared_ptr.1" }
%"class.std::shared_ptr.1" = type { %"class.std::__shared_ptr.2" }
%"class.std::__shared_ptr.2" = type { ptr, %"class.std::__shared_count" }
%"class.cv::Mat" = type { i32, i32, i32, i32, ptr, ptr, ptr, ptr, ptr, ptr, %"struct.cv::MatSize", %"struct.cv::MatStep" }
%"struct.cv::MatSize" = type { ptr }
%"struct.cv::MatStep" = type { ptr, [2 x i64] }
%"class.opencl::PlatformInfo" = type { %"class.std::__cxx11::basic_string", %"class.std::__cxx11::basic_string", %"class.std::__cxx11::basic_string", %"class.std::__cxx11::basic_string", %"class.std::__cxx11::basic_string" }
%"class.opencl::DeviceInfo" = type <{ i64, i32, i32, i32, [4 x i8], %"class.std::vector", i64, i32, i32, i32, i32, i32, i32, i32, i32, i32, i32, i32, i32, i32, i32, i32, i32, i64, i32, i32, i32, i32, i64, i64, i64, i64, i64, i64, i64, i32, i32, i32, i32, i32, i32, i64, i32, [4 x i8], i64, i64, i32, i32, i64, i64, i64, i32, [4 x i8], i64, i64, i32, [4 x i8], i64, i32, i32, i64, i32, i32, i32, i32, i64, i64, i64, i64, i32, i32, i32, i32, %"class.std::__cxx11::basic_string", ptr, %"class.std::__cxx11::basic_string", %"class.std::__cxx11::basic_string", %"class.std::__cxx11::basic_string", %"class.std::__cxx11::basic_string", %"class.std::__cxx11::basic_string", %"class.std::__cxx11::basic_string", %"class.std::__cxx11::basic_string", i64, i32, [4 x i8], ptr, i32, [4 x i8], %"class.std::vector.7", i64, %"class.std::vector.7", i32, [4 x i8] }>
%"class.std::vector" = type { %"struct.std::_Vector_base" }
%"struct.std::_Vector_base" = type { %"struct.std::_Vector_base<unsigned long, std::allocator<unsigned long>>::_Vector_impl" }
%"struct.std::_Vector_base<unsigned long, std::allocator<unsigned long>>::_Vector_impl" = type { %"struct.std::_Vector_base<unsigned long, std::allocator<unsigned long>>::_Vector_impl_data" }
%"struct.std::_Vector_base<unsigned long, std::allocator<unsigned long>>::_Vector_impl_data" = type { ptr, ptr, ptr }
%"class.std::vector.7" = type { %"struct.std::_Vector_base.8" }
%"struct.std::_Vector_base.8" = type { %"struct.std::_Vector_base<long, std::allocator<long>>::_Vector_impl" }
%"struct.std::_Vector_base<long, std::allocator<long>>::_Vector_impl" = type { %"struct.std::_Vector_base<long, std::allocator<long>>::_Vector_impl_data" }
%"struct.std::_Vector_base<long, std::allocator<long>>::_Vector_impl_data" = type { ptr, ptr, ptr }
%"class.std::vector.12" = type { %"struct.std::_Vector_base.13" }
%"struct.std::_Vector_base.13" = type { %"struct.std::_Vector_base<_cl_platform_id *, std::allocator<_cl_platform_id *>>::_Vector_impl" }
%"struct.std::_Vector_base<_cl_platform_id *, std::allocator<_cl_platform_id *>>::_Vector_impl" = type { %"struct.std::_Vector_base<_cl_platform_id *, std::allocator<_cl_platform_id *>>::_Vector_impl_data" }
%"struct.std::_Vector_base<_cl_platform_id *, std::allocator<_cl_platform_id *>>::_Vector_impl_data" = type { ptr, ptr, ptr }

; Function Attrs: mustprogress nounwind uwtable
define linkonce_odr hidden void @_ZN3App12setDoProcessEb(ptr noundef nonnull align 8 dereferenceable(1328) %0, i1 noundef zeroext %1) #5 comdat align 2 {
  %3 = alloca ptr, align 8
  %4 = alloca i8, align 1
  store ptr %0, ptr %3, align 8, !tbaa !4
  %5 = zext i1 %1 to i8
  store i8 %5, ptr %4, align 1, !tbaa !90
  %6 = load ptr, ptr %3, align 8
  %7 = load i8, ptr %4, align 1, !tbaa !90, !range !92, !noundef !93
  %8 = trunc i8 %7 to i1
  %9 = getelementptr inbounds nuw %class.App, ptr %6, i32 0, i32 1
  %10 = zext i1 %8 to i8
  store i8 %10, ptr %9, align 1, !tbaa !62
  ret void
}

; Function Attrs: mustprogress nounwind uwtable
define linkonce_odr hidden noundef zeroext i1 @_ZN3App9doProcessEv(ptr noundef nonnull align 8 dereferenceable(1328) %0) #5 comdat align 2 {
  %2 = alloca ptr, align 8
  store ptr %0, ptr %2, align 8, !tbaa !4
  %3 = load ptr, ptr %2, align 8
  %4 = getelementptr inbounds nuw %class.App, ptr %3, i32 0, i32 1
  %5 = load i8, ptr %4, align 1, !tbaa !62, !range !92, !noundef !93
  %6 = trunc i8 %5 to i1
  ret i1 %6
}

; Function Attrs: mustprogress nounwind uwtable
define linkonce_odr hidden void @_ZN3App12setUseBufferEb(ptr noundef nonnull align 8 dereferenceable(1328) %0, i1 noundef zeroext %1) #5 comdat align 2 {
  %3 = alloca ptr, align 8
  %4 = alloca i8, align 1
  store ptr %0, ptr %3, align 8, !tbaa !4
  %5 = zext i1 %1 to i8
  store i8 %5, ptr %4, align 1, !tbaa !90
  %6 = load ptr, ptr %3, align 8
  %7 = load i8, ptr %4, align 1, !tbaa !90, !range !92, !noundef !93
  %8 = trunc i8 %7 to i1
  %9 = getelementptr inbounds nuw %class.App, ptr %6, i32 0, i32 2
  %10 = zext i1 %8 to i8
  store i8 %10, ptr %9, align 2, !tbaa !63
  ret void
}

; Function Attrs: mustprogress nounwind uwtable
define linkonce_odr hidden noundef zeroext i1 @_ZN3App9useBufferEv(ptr noundef nonnull align 8 dereferenceable(1328) %0) #5 comdat align 2 {
  %2 = alloca ptr, align 8
  store ptr %0, ptr %2, align 8, !tbaa !4
  %3 = load ptr, ptr %2, align 8
  %4 = getelementptr inbounds nuw %class.App, ptr %3, i32 0, i32 2
  %5 = load i8, ptr %4, align 2, !tbaa !63, !range !92, !noundef !93
  %6 = trunc i8 %5 to i1
  ret i1 %6
}

; Function Attrs: mustprogress nounwind uwtable
define linkonce_odr hidden void @_ZN3App10setRunningEb(ptr noundef nonnull align 8 dereferenceable(1328) %0, i1 noundef zeroext %1) #5 comdat align 2 {
  %3 = alloca ptr, align 8
  %4 = alloca i8, align 1
  store ptr %0, ptr %3, align 8, !tbaa !4
  %5 = zext i1 %1 to i8
  store i8 %5, ptr %4, align 1, !tbaa !90
  %6 = load ptr, ptr %3, align 8
  %7 = load i8, ptr %4, align 1, !tbaa !90, !range !92, !noundef !93
  %8 = trunc i8 %7 to i1
  %9 = getelementptr inbounds nuw %class.App, ptr %6, i32 0, i32 0
  %10 = zext i1 %8 to i8
  store i8 %10, ptr %9, align 8, !tbaa !61
  ret void
}

; Function Attrs: mustprogress uwtable
define hidden void @_ZN3App9handleKeyEc(ptr noundef nonnull align 8 dereferenceable(1328) %0, i8 noundef signext %1) #4 align 2 {
  %3 = alloca ptr, align 8
  %4 = alloca i8, align 1
  store ptr %0, ptr %3, align 8, !tbaa !4
  store i8 %1, ptr %4, align 1, !tbaa !98
  %5 = load ptr, ptr %3, align 8
  %6 = load i8, ptr %4, align 1, !tbaa !98
  %7 = sext i8 %6 to i32
  switch i32 %7, label %15 [
    i32 27, label %8
    i32 32, label %9
    i32 112, label %12
    i32 80, label %12
  ]

8:                                                ; preds = %2
  call void @_ZN3App10setRunningEb(ptr noundef nonnull align 8 dereferenceable(1328) %5, i1 noundef zeroext false)
  br label %16

9:                                                ; preds = %2
  %10 = call noundef zeroext i1 @_ZN3App9useBufferEv(ptr noundef nonnull align 8 dereferenceable(1328) %5)
  %11 = xor i1 %10, true
  call void @_ZN3App12setUseBufferEb(ptr noundef nonnull align 8 dereferenceable(1328) %5, i1 noundef zeroext %11)
  br label %16

12:                                               ; preds = %2, %2
  %13 = call noundef zeroext i1 @_ZN3App9doProcessEv(ptr noundef nonnull align 8 dereferenceable(1328) %5)
  %14 = xor i1 %13, true
  call void @_ZN3App12setDoProcessEb(ptr noundef nonnull align 8 dereferenceable(1328) %5, i1 noundef zeroext %14)
  br label %16

15:                                               ; preds = %2
  br label %16

16:                                               ; preds = %15, %12, %9, %8
  ret void
}