; Function Attrs: mustprogress nofree norecurse nosync nounwind willreturn memory(argmem: readwrite) uwtable
define hidden void @_ZN3App9handleKeyEc(ptr noundef nonnull align 8 captures(none) dereferenceable(1328) %0, i8 noundef signext %1) local_unnamed_addr #14 align 2 {
  switch i8 %1, label %12 [
    i8 27, label %3
    i8 32, label %4
    i8 112, label %8
    i8 80, label %8
  ]

3:                                                ; preds = %2
  store i8 0, ptr %0, align 8, !tbaa !88
  br label %12

4:                                                ; preds = %2
  %5 = getelementptr inbounds nuw i8, ptr %0, i64 2
  %6 = load i8, ptr %5, align 2, !tbaa !90, !range !140, !noundef !141
  %7 = xor i8 %6, 1
  store i8 %7, ptr %5, align 2, !tbaa !90
  br label %12

8:                                                ; preds = %2, %2
  %9 = getelementptr inbounds nuw i8, ptr %0, i64 1
  %10 = load i8, ptr %9, align 1, !tbaa !89, !range !140, !noundef !141
  %11 = xor i8 %10, 1
  store i8 %11, ptr %9, align 1, !tbaa !89
  br label %12

12:                                               ; preds = %2, %8, %4, %3
  ret void
}